; Function Attrs: nounwind uwtable
define internal ptr @proxy_repr(ptr noundef %0) #0 {
  %2 = getelementptr i8, ptr %0, i64 16
  %.val = load ptr, ptr %2, align 8, !tbaa !37
  %3 = icmp eq ptr %.val, @_Py_NoneStruct
  br i1 %3, label %_PyWeakref_GET_REF.exit.thread, label %4

4:                                                ; preds = %1
  %.val.i.i = load i32, ptr %.val, align 8, !tbaa !42
  %.not.i.i = icmp eq i32 %.val.i.i, 0
  br i1 %.not.i.i, label %_PyWeakref_GET_REF.exit.thread, label %5

5:                                                ; preds = %4
  %6 = icmp slt i32 %.val.i.i, 0
  br i1 %6, label %_PyWeakref_GET_REF.exit, label %7

7:                                                ; preds = %5
  %8 = add nuw i32 %.val.i.i, 1
  store i32 %8, ptr %.val, align 8, !tbaa !42
  br label %_PyWeakref_GET_REF.exit

_PyWeakref_GET_REF.exit:                          ; preds = %7, %5
  %9 = tail call ptr (ptr, ...) @PyUnicode_FromFormat(ptr noundef nonnull @.str.19, ptr noundef nonnull %0, ptr noundef nonnull %.val, ptr noundef nonnull %.val) #6
  %10 = load i32, ptr %.val, align 8, !tbaa !42
  %.not.i = icmp sgt i32 %10, -1
  br i1 %.not.i, label %11, label %Py_DECREF.exit

11:                                               ; preds = %_PyWeakref_GET_REF.exit
  %12 = add nsw i32 %10, -1
  store i32 %12, ptr %.val, align 8, !tbaa !42
  %13 = icmp eq i32 %12, 0
  br i1 %13, label %14, label %Py_DECREF.exit

14:                                               ; preds = %11
  tail call void @_Py_Dealloc(ptr noundef nonnull %.val) #6
  br label %Py_DECREF.exit

_PyWeakref_GET_REF.exit.thread:                   ; preds = %4, %1
  %15 = tail call ptr (ptr, ...) @PyUnicode_FromFormat(ptr noundef nonnull @.str.20, ptr noundef nonnull %0) #6
  br label %Py_DECREF.exit

Py_DECREF.exit:                                   ; preds = %14, %11, %_PyWeakref_GET_REF.exit, %_PyWeakref_GET_REF.exit.thread
  %.0 = phi ptr [ %15, %_PyWeakref_GET_REF.exit.thread ], [ %9, %_PyWeakref_GET_REF.exit ], [ %9, %11 ], [ %9, %14 ]
  ret ptr %.0
}